target datalayout = "e-m:e-p270:32:32-p271:32:32-p272:64:64-i64:64-i128:128-f80:128-n8:16:32:64-S128"
target triple = "x86_64-pc-linux-gnu"

%struct.IDAMemRec = type { ptr, double, ptr, ptr, i32, double, double, ptr, i32, i32, ptr, ptr, i32, i32, i32, ptr, ptr, i32, i32, double, double, ptr, i32, i32, i32, i32, ptr, ptr, i32, ptr, ptr, ptr, i32, double, i32, i32, double, ptr, ptr, ptr, i32, ptr, ptr, i32, i32, i32, double, ptr, ptr, ptr, [6 x ptr], [6 x double], [6 x double], [6 x double], [6 x double], [6 x double], ptr, ptr, ptr, ptr, ptr, ptr, ptr, ptr, ptr, ptr, ptr, ptr, ptr, ptr, ptr, ptr, ptr, [6 x ptr], ptr, ptr, ptr, ptr, [6 x ptr], ptr, ptr, ptr, ptr, ptr, ptr, ptr, ptr, ptr, ptr, ptr, ptr, ptr, ptr, ptr, ptr, [6 x ptr], ptr, ptr, ptr, ptr, ptr, double, ptr, ptr, i32, i32, i32, i32, i32, i32, i32, i32, double, double, double, i32, double, i32, i32, i32, i32, i32, double, double, double, double, double, double, double, double, double, double, double, double, double, double, double, double, double, i32, i32, i32, i32, i64, double, double, double, double, double, double, double, double, double, i64, i64, i64, i64, i64, i64, i64, i64, i64, i64, i64, i64, i64, i64, i64, i64, i64, i64, i64, i64, i64, i64, i64, i64, i64, i64, double, i32, i32, i32, i32, i32, i32, i32, i32, i32, i32, i32, i32, i32, ptr, i32, ptr, i32, ptr, i32, ptr, ptr, ptr, ptr, ptr, ptr, i32, i32, ptr, ptr, ptr, ptr, ptr, ptr, ptr, double, i32, i32, ptr, i32, ptr, ptr, double, double, double, ptr, ptr, ptr, double, double, i32, i32, i64, ptr, i32, ptr, [5 x double], ptr, ptr, i32, ptr, i32 }

@.str = private unnamed_addr constant [114 x i8] c"generated/home/dtcxzyw/WorkSpace/Projects/compilers/llvm-opt-benchmark/bench/sundials/sundials/src/idas/idas_io.c\00", align 1
@.str.1 = private unnamed_addr constant [24 x i8] c"ida_mem = NULL illegal.\00", align 1
@.str.21 = private unnamed_addr constant [52 x i8] c"Illegal attempt to call before calling IDASensInit.\00", align 1
@__func__.IDAGetSensStats = private unnamed_addr constant [16 x i8] c"IDAGetSensStats\00", align 1

; Function Attrs: nounwind uwtable
define i32 @IDAGetSensStats(ptr noundef %0, ptr noundef %1, ptr noundef %2, ptr noundef %3, ptr noundef %4) #0 {
  %6 = alloca i32, align 4
  %7 = alloca ptr, align 8
  %8 = alloca ptr, align 8
  %9 = alloca ptr, align 8
  %10 = alloca ptr, align 8
  %11 = alloca ptr, align 8
  %12 = alloca ptr, align 8
  store ptr %0, ptr %7, align 8
  store ptr %1, ptr %8, align 8
  store ptr %2, ptr %9, align 8
  store ptr %3, ptr %10, align 8
  store ptr %4, ptr %11, align 8
  %13 = load ptr, ptr %7, align 8
  %14 = icmp eq ptr %13, null
  br i1 %14, label %15, label %16

15:                                               ; preds = %5
  call void (ptr, i32, i32, ptr, ptr, ptr, ...) @IDAProcessError(ptr noundef null, i32 noundef -20, i32 noundef 2090, ptr noundef @__func__.IDAGetSensStats, ptr noundef @.str, ptr noundef @.str.1)
  store i32 -20, ptr %6, align 4
  br label %41

16:                                               ; preds = %5
  %17 = load ptr, ptr %7, align 8
  store ptr %17, ptr %12, align 8
  %18 = load ptr, ptr %12, align 8
  %19 = getelementptr inbounds %struct.IDAMemRec, ptr %18, i32 0, i32 23
  %20 = load i32, ptr %19, align 4
  %21 = icmp eq i32 %20, 0
  br i1 %21, label %22, label %24

22:                                               ; preds = %16
  %23 = load ptr, ptr %12, align 8
  call void (ptr, i32, i32, ptr, ptr, ptr, ...) @IDAProcessError(ptr noundef %23, i32 noundef -40, i32 noundef 2098, ptr noundef @__func__.IDAGetSensStats, ptr noundef @.str, ptr noundef @.str.21)
  store i32 -40, ptr %6, align 4
  br label %41

24:                                               ; preds = %16
  %25 = load ptr, ptr %12, align 8
  %26 = getelementptr inbounds %struct.IDAMemRec, ptr %25, i32 0, i32 156
  %27 = load i64, ptr %26, align 8
  %28 = load ptr, ptr %8, align 8
  store i64 %27, ptr %28, align 8
  %29 = load ptr, ptr %12, align 8
  %30 = getelementptr inbounds %struct.IDAMemRec, ptr %29, i32 0, i32 158
  %31 = load i64, ptr %30, align 8
  %32 = load ptr, ptr %9, align 8
  store i64 %31, ptr %32, align 8
  %33 = load ptr, ptr %12, align 8
  %34 = getelementptr inbounds %struct.IDAMemRec, ptr %33, i32 0, i32 165
  %35 = load i64, ptr %34, align 8
  %36 = load ptr, ptr %10, align 8
  store i64 %35, ptr %36, align 8
  %37 = load ptr, ptr %12, align 8
  %38 = getelementptr inbounds %struct.IDAMemRec, ptr %37, i32 0, i32 172
  %39 = load i64, ptr %38, align 8
  %40 = load ptr, ptr %11, align 8
  store i64 %39, ptr %40, align 8
  store i32 0, ptr %6, align 4
  br label %41

41:                                               ; preds = %24, %22, %15
  %42 = load i32, ptr %6, align 4
  ret i32 %42
}