; Function Attrs: nounwind uwtable
define range(i32 -40, 1) i32 @IDAGetSensStats(ptr noundef %0, ptr noundef writeonly captures(none) %1, ptr noundef writeonly captures(none) %2, ptr noundef writeonly captures(none) %3, ptr noundef writeonly captures(none) %4) local_unnamed_addr #0 {
  %6 = icmp eq ptr %0, null
  br i1 %6, label %7, label %8

7:                                                ; preds = %5
  tail call void (ptr, i32, i32, ptr, ptr, ptr, ...) @IDAProcessError(ptr noundef null, i32 noundef -20, i32 noundef 2090, ptr noundef nonnull @__func__.IDAGetSensStats, ptr noundef nonnull @.str, ptr noundef nonnull @.str.1) #9
  br label %22

8:                                                ; preds = %5
  %9 = getelementptr inbounds nuw i8, ptr %0, i64 156
  %10 = load i32, ptr %9, align 4
  %11 = icmp eq i32 %10, 0
  br i1 %11, label %12, label %13

12:                                               ; preds = %8
  tail call void (ptr, i32, i32, ptr, ptr, ptr, ...) @IDAProcessError(ptr noundef nonnull %0, i32 noundef -40, i32 noundef 2098, ptr noundef nonnull @__func__.IDAGetSensStats, ptr noundef nonnull @.str, ptr noundef nonnull @.str.21) #9
  br label %22

13:                                               ; preds = %8
  %14 = getelementptr inbounds nuw i8, ptr %0, i64 1488
  %15 = load i64, ptr %14, align 8
  store i64 %15, ptr %1, align 8
  %16 = getelementptr inbounds nuw i8, ptr %0, i64 1504
  %17 = load i64, ptr %16, align 8
  store i64 %17, ptr %2, align 8
  %18 = getelementptr inbounds nuw i8, ptr %0, i64 1560
  %19 = load i64, ptr %18, align 8
  store i64 %19, ptr %3, align 8
  %20 = getelementptr inbounds nuw i8, ptr %0, i64 1616
  %21 = load i64, ptr %20, align 8
  store i64 %21, ptr %4, align 8
  br label %22

22:                                               ; preds = %13, %12, %7
  %.0 = phi i32 [ -20, %7 ], [ -40, %12 ], [ 0, %13 ]
  ret i32 %.0
}